target datalayout = "e-m:e-p270:32:32-p271:32:32-p272:64:64-i64:64-i128:128-f80:128-n8:16:32:64-S128"
target triple = "x86_64-pc-linux-gnu"

%struct.QemuMutex = type { %union.pthread_mutex_t, i8 }
%union.pthread_mutex_t = type { %struct.__pthread_mutex_s }
%struct.__pthread_mutex_s = type { i32, i32, i32, i32, i32, i16, i16, %struct.__pthread_internal_list }
%struct.__pthread_internal_list = type { ptr, ptr }
%struct.QemuLockable = type { ptr, ptr, ptr }
%struct.BlockJob = type { %struct.Job, i32, i64, %struct.RateLimit, ptr, %struct.Notifier, %struct.Notifier, %struct.Notifier, %struct.Notifier, %struct.Notifier, ptr }
%struct.Job = type { ptr, ptr, ptr, i8, i8, ptr, ptr, %struct.ProgressMeter, ptr, i32, i32, %struct.QEMUTimer, i32, i8, i8, i8, i8, i8, i8, i32, ptr, %struct.NotifierList, %struct.NotifierList, %struct.NotifierList, %struct.NotifierList, %struct.NotifierList, %struct.anon.12, ptr, %struct.anon.13 }
%struct.ProgressMeter = type { i64, i64, %struct.QemuMutex }
%struct.QEMUTimer = type { i64, ptr, ptr, ptr, ptr, i32, i32 }
%struct.NotifierList = type { %struct.anon.11 }
%struct.anon.11 = type { ptr }
%struct.anon.12 = type { ptr, ptr }
%struct.anon.13 = type { ptr, ptr }
%struct.RateLimit = type { %struct.QemuMutex, i64, i64, i64, i64, i64 }
%struct.Notifier = type { ptr, %struct.anon.14 }
%struct.anon.14 = type { ptr, ptr }
%struct.timeval = type { i64, i64 }

@.str.1 = private unnamed_addr constant [19 x i8] c"../qemu/blockdev.c\00", align 1
@job_mutex = external global %struct.QemuMutex, align 8
@trace_events_enabled_count = external global i32, align 4
@message_with_timestamp = external global i8, align 1
@qemu_loglevel = external global i32, align 4
@.str.247 = private unnamed_addr constant [11 x i8] c"id != NULL\00", align 1
@__PRETTY_FUNCTION__.find_block_job_locked = private unnamed_addr constant [56 x i8] c"BlockJob *find_block_job_locked(const char *, Error **)\00", align 1
@__func__.find_block_job_locked = private unnamed_addr constant [22 x i8] c"find_block_job_locked\00", align 1
@.str.248 = private unnamed_addr constant [25 x i8] c"Block job '%s' not found\00", align 1
@_TRACE_QMP_BLOCK_JOB_DISMISS_DSTATE = external global i16, align 2
@.str.259 = private unnamed_addr constant [43 x i8] c"%d@%zu.%06zu:qmp_block_job_dismiss job %p\0A\00", align 1
@.str.260 = private unnamed_addr constant [30 x i8] c"qmp_block_job_dismiss job %p\0A\00", align 1

; Function Attrs: inlinehint nounwind sspstrong uwtable
define internal void @qemu_lockable_unlock(ptr noundef %0) #5 {
  %2 = alloca ptr, align 8
  store ptr %0, ptr %2, align 8
  %3 = load ptr, ptr %2, align 8
  %4 = getelementptr inbounds nuw %struct.QemuLockable, ptr %3, i32 0, i32 2
  %5 = load ptr, ptr %4, align 8
  %6 = load ptr, ptr %2, align 8
  %7 = getelementptr inbounds nuw %struct.QemuLockable, ptr %6, i32 0, i32 0
  %8 = load ptr, ptr %7, align 8
  call void %5(ptr noundef %8)
  ret void
}

; Function Attrs: inlinehint nounwind sspstrong uwtable
define internal void @qemu_lockable_auto_unlock(ptr noundef %0) #5 {
  %2 = alloca ptr, align 8
  store ptr %0, ptr %2, align 8
  %3 = load ptr, ptr %2, align 8
  %4 = icmp ne ptr %3, null
  br i1 %4, label %5, label %7

5:                                                ; preds = %1
  %6 = load ptr, ptr %2, align 8
  call void @qemu_lockable_unlock(ptr noundef %6)
  br label %7

7:                                                ; preds = %5, %1
  ret void
}

; Function Attrs: inlinehint nounwind sspstrong uwtable
define internal zeroext i1 @qemu_loglevel_mask(i32 noundef %0) #5 {
  %2 = alloca i32, align 4
  store i32 %0, ptr %2, align 4
  %3 = load i32, ptr @qemu_loglevel, align 4
  %4 = load i32, ptr %2, align 4
  %5 = and i32 %3, %4
  %6 = icmp ne i32 %5, 0
  ret i1 %6
}

; Function Attrs: inlinehint nounwind sspstrong uwtable
define internal void @glib_autoptr_clear_QemuLockable(ptr noundef %0) #5 {
  %2 = alloca ptr, align 8
  store ptr %0, ptr %2, align 8
  %3 = load ptr, ptr %2, align 8
  %4 = icmp ne ptr %3, null
  br i1 %4, label %5, label %7

5:                                                ; preds = %1
  %6 = load ptr, ptr %2, align 8
  call void @qemu_lockable_auto_unlock(ptr noundef %6)
  br label %7

7:                                                ; preds = %5, %1
  ret void
}

; Function Attrs: inlinehint nounwind sspstrong uwtable
define internal void @_nocheck__trace_qmp_block_job_dismiss(ptr noundef %0) #5 {
  %2 = alloca ptr, align 8
  %3 = alloca %struct.timeval, align 8
  store ptr %0, ptr %2, align 8
  %4 = load i32, ptr @trace_events_enabled_count, align 4
  %5 = icmp ne i32 %4, 0
  %6 = xor i1 %5, true
  %7 = xor i1 %6, true
  %8 = zext i1 %7 to i32
  %9 = sext i32 %8 to i64
  %10 = call i64 @llvm.expect.i64(i64 %9, i64 0)
  %11 = icmp ne i64 %10, 0
  br i1 %11, label %12, label %32

12:                                               ; preds = %1
  %13 = load i16, ptr @_TRACE_QMP_BLOCK_JOB_DISMISS_DSTATE, align 2
  %14 = zext i16 %13 to i32
  %15 = icmp ne i32 %14, 0
  br i1 %15, label %16, label %32

16:                                               ; preds = %12
  %17 = call zeroext i1 @qemu_loglevel_mask(i32 noundef 32768)
  br i1 %17, label %18, label %32

18:                                               ; preds = %16
  %19 = load i8, ptr @message_with_timestamp, align 1, !range !7, !noundef !8
  %20 = trunc i8 %19 to i1
  br i1 %20, label %21, label %29

21:                                               ; preds = %18
  call void @llvm.lifetime.start.p0(i64 16, ptr %3) #16
  call void @llvm.memset.p0.i64(ptr align 8 %3, i8 0, i64 16, i1 false), !annotation !4
  %22 = call i32 @gettimeofday(ptr noundef %3, ptr noundef null) #16
  %23 = call i32 @qemu_get_thread_id()
  %24 = getelementptr inbounds nuw %struct.timeval, ptr %3, i32 0, i32 0
  %25 = load i64, ptr %24, align 8
  %26 = getelementptr inbounds nuw %struct.timeval, ptr %3, i32 0, i32 1
  %27 = load i64, ptr %26, align 8
  %28 = load ptr, ptr %2, align 8
  call void (ptr, ...) @qemu_log(ptr noundef @.str.259, i32 noundef %23, i64 noundef %25, i64 noundef %27, ptr noundef %28)
  call void @llvm.lifetime.end.p0(i64 16, ptr %3) #16
  br label %31

29:                                               ; preds = %18
  %30 = load ptr, ptr %2, align 8
  call void (ptr, ...) @qemu_log(ptr noundef @.str.260, ptr noundef %30)
  br label %31

31:                                               ; preds = %29, %21
  br label %32

32:                                               ; preds = %31, %16, %12, %1
  ret void
}

; Function Attrs: inlinehint nounwind sspstrong uwtable
define internal void @qemu_lockable_lock(ptr noundef %0) #5 {
  %2 = alloca ptr, align 8
  store ptr %0, ptr %2, align 8
  %3 = load ptr, ptr %2, align 8
  %4 = getelementptr inbounds nuw %struct.QemuLockable, ptr %3, i32 0, i32 1
  %5 = load ptr, ptr %4, align 8
  %6 = load ptr, ptr %2, align 8
  %7 = getelementptr inbounds nuw %struct.QemuLockable, ptr %6, i32 0, i32 0
  %8 = load ptr, ptr %7, align 8
  call void %5(ptr noundef %8)
  ret void
}

; Function Attrs: inlinehint nounwind sspstrong uwtable
define internal void @glib_autoptr_cleanup_QemuLockable(ptr noundef %0) #5 {
  %2 = alloca ptr, align 8
  store ptr %0, ptr %2, align 8
  %3 = load ptr, ptr %2, align 8
  %4 = load ptr, ptr %3, align 8
  call void @glib_autoptr_clear_QemuLockable(ptr noundef %4)
  ret void
}

; Function Attrs: inlinehint nounwind sspstrong uwtable
define internal void @trace_qmp_block_job_dismiss(ptr noundef %0) #5 {
  %2 = alloca ptr, align 8
  store ptr %0, ptr %2, align 8
  %3 = load ptr, ptr %2, align 8
  call void @_nocheck__trace_qmp_block_job_dismiss(ptr noundef %3)
  ret void
}

; Function Attrs: nounwind sspstrong uwtable
define internal ptr @find_block_job_locked(ptr noundef %0, ptr noundef %1) #0 {
  %3 = alloca ptr, align 8
  %4 = alloca ptr, align 8
  %5 = alloca ptr, align 8
  %6 = alloca ptr, align 8
  %7 = alloca i32, align 4
  store ptr %0, ptr %4, align 8
  store ptr %1, ptr %5, align 8
  call void @llvm.lifetime.start.p0(i64 8, ptr %6) #16
  store ptr null, ptr %6, align 8, !annotation !4
  %8 = load ptr, ptr %4, align 8
  %9 = icmp ne ptr %8, null
  br i1 %9, label %10, label %11

10:                                               ; preds = %2
  br label %12

11:                                               ; preds = %2
  call void @__assert_fail(ptr noundef @.str.247, ptr noundef @.str.1, i32 noundef 3137, ptr noundef @__PRETTY_FUNCTION__.find_block_job_locked) #15
  unreachable

12:                                               ; preds = %10
  %13 = load ptr, ptr %4, align 8
  %14 = call ptr @block_job_get_locked(ptr noundef %13)
  store ptr %14, ptr %6, align 8
  %15 = load ptr, ptr %6, align 8
  %16 = icmp ne ptr %15, null
  br i1 %16, label %20, label %17

17:                                               ; preds = %12
  %18 = load ptr, ptr %5, align 8
  %19 = load ptr, ptr %4, align 8
  call void (ptr, ptr, i32, ptr, i32, ptr, ...) @error_set_internal(ptr noundef %18, ptr noundef @.str.1, i32 noundef 3143, ptr noundef @__func__.find_block_job_locked, i32 noundef 2, ptr noundef @.str.248, ptr noundef %19)
  store ptr null, ptr %3, align 8
  store i32 1, ptr %7, align 4
  br label %22

20:                                               ; preds = %12
  %21 = load ptr, ptr %6, align 8
  store ptr %21, ptr %3, align 8
  store i32 1, ptr %7, align 4
  br label %22

22:                                               ; preds = %20, %17
  call void @llvm.lifetime.end.p0(i64 8, ptr %6) #16
  %23 = load ptr, ptr %3, align 8
  ret ptr %23
}

; Function Attrs: inlinehint nounwind sspstrong uwtable
define internal ptr @qemu_lockable_auto_lock(ptr noundef %0) #5 {
  %2 = alloca ptr, align 8
  store ptr %0, ptr %2, align 8
  %3 = load ptr, ptr %2, align 8
  call void @qemu_lockable_lock(ptr noundef %3)
  %4 = load ptr, ptr %2, align 8
  ret ptr %4
}

; Function Attrs: alwaysinline nounwind sspstrong uwtable
define internal ptr @qemu_make_lockable(ptr noundef %0, ptr noundef %1) #6 {
  %3 = alloca ptr, align 8
  %4 = alloca ptr, align 8
  store ptr %0, ptr %3, align 8
  store ptr %1, ptr %4, align 8
  %5 = load ptr, ptr %3, align 8
  %6 = icmp ne ptr %5, null
  br i1 %6, label %7, label %9

7:                                                ; preds = %2
  %8 = load ptr, ptr %4, align 8
  br label %10

9:                                                ; preds = %2
  br label %10

10:                                               ; preds = %9, %7
  %11 = phi ptr [ %8, %7 ], [ null, %9 ]
  ret ptr %11
}

; Function Attrs: nounwind sspstrong uwtable
define dso_local void @qmp_block_job_dismiss(ptr noundef %0, ptr noundef %1) #0 {
  %3 = alloca ptr, align 8
  %4 = alloca ptr, align 8
  %5 = alloca ptr, align 8
  %6 = alloca ptr, align 8
  %7 = alloca ptr, align 8
  %8 = alloca %struct.QemuLockable, align 8
  %9 = alloca i32, align 4
  store ptr %0, ptr %3, align 8
  store ptr %1, ptr %4, align 8
  call void @llvm.lifetime.start.p0(i64 8, ptr %5) #16
  store ptr null, ptr %5, align 8, !annotation !4
  call void @llvm.lifetime.start.p0(i64 8, ptr %6) #16
  store ptr null, ptr %6, align 8, !annotation !4
  call void @llvm.lifetime.start.p0(i64 8, ptr %7) #16
  %10 = getelementptr inbounds nuw %struct.QemuLockable, ptr %8, i32 0, i32 0
  store ptr @job_mutex, ptr %10, align 8
  %11 = getelementptr inbounds nuw %struct.QemuLockable, ptr %8, i32 0, i32 1
  store ptr @qemu_lockable_mutex_lock, ptr %11, align 8
  %12 = getelementptr inbounds nuw %struct.QemuLockable, ptr %8, i32 0, i32 2
  store ptr @qemu_lockable_mutex_unlock, ptr %12, align 8
  %13 = call ptr @qemu_make_lockable(ptr noundef @job_mutex, ptr noundef %8)
  %14 = call ptr @qemu_lockable_auto_lock(ptr noundef %13)
  store ptr %14, ptr %7, align 8
  %15 = load ptr, ptr %3, align 8
  %16 = load ptr, ptr %4, align 8
  %17 = call ptr @find_block_job_locked(ptr noundef %15, ptr noundef %16)
  store ptr %17, ptr %5, align 8
  %18 = load ptr, ptr %5, align 8
  %19 = icmp ne ptr %18, null
  br i1 %19, label %21, label %20

20:                                               ; preds = %2
  store i32 1, ptr %9, align 4
  br label %26

21:                                               ; preds = %2
  %22 = load ptr, ptr %5, align 8
  call void @trace_qmp_block_job_dismiss(ptr noundef %22)
  %23 = load ptr, ptr %5, align 8
  %24 = getelementptr inbounds nuw %struct.BlockJob, ptr %23, i32 0, i32 0
  store ptr %24, ptr %6, align 8
  %25 = load ptr, ptr %4, align 8
  call void @job_dismiss_locked(ptr noundef %6, ptr noundef %25)
  store i32 0, ptr %9, align 4
  br label %26

26:                                               ; preds = %21, %20
  call void @glib_autoptr_cleanup_QemuLockable(ptr noundef %7)
  call void @llvm.lifetime.end.p0(i64 8, ptr %7) #16
  call void @llvm.lifetime.end.p0(i64 8, ptr %6) #16
  call void @llvm.lifetime.end.p0(i64 8, ptr %5) #16
  %27 = load i32, ptr %9, align 4
  switch i32 %27, label %29 [
    i32 0, label %28
    i32 1, label %28
  ]

28:                                               ; preds = %26, %26
  ret void

29:                                               ; preds = %26
  unreachable
}