; Function Attrs: nounwind sspstrong uwtable
define dso_local void @qmp_block_job_dismiss(ptr noundef %0, ptr noundef %1) local_unnamed_addr #0 {
  %3 = alloca %struct.timeval, align 8
  %4 = alloca ptr, align 8
  call void @llvm.lifetime.start.p0(i64 8, ptr nonnull %4) #14
  %5 = load atomic i64, ptr @qemu_mutex_lock_func monotonic, align 8
  %6 = inttoptr i64 %5 to ptr
  tail call void %6(ptr noundef nonnull @job_mutex, ptr noundef nonnull @.str.183, i32 noundef 56) #14
  %.not.i = icmp eq ptr %0, null
  br i1 %.not.i, label %7, label %8

7:                                                ; preds = %2
  tail call void @__assert_fail(ptr noundef nonnull @.str.247, ptr noundef nonnull @.str.1, i32 noundef 3137, ptr noundef nonnull @__PRETTY_FUNCTION__.find_block_job_locked) #15
  unreachable

8:                                                ; preds = %2
  store ptr null, ptr %4, align 8, !annotation !10
  %9 = tail call ptr @block_job_get_locked(ptr noundef nonnull %0) #14
  %.not9.i = icmp eq ptr %9, null
  br i1 %.not9.i, label %find_block_job_locked.exit.thread, label %find_block_job_locked.exit

find_block_job_locked.exit.thread:                ; preds = %8
  tail call void (ptr, ptr, i32, ptr, i32, ptr, ...) @error_set_internal(ptr noundef %1, ptr noundef nonnull @.str.1, i32 noundef 3143, ptr noundef nonnull @__func__.find_block_job_locked, i32 noundef 2, ptr noundef nonnull @.str.248, ptr noundef nonnull %0) #14
  br label %glib_autoptr_cleanup_QemuLockable.exit

find_block_job_locked.exit:                       ; preds = %8
  %10 = load i32, ptr @trace_events_enabled_count, align 4
  %.not.i.i = icmp eq i32 %10, 0
  br i1 %.not.i.i, label %trace_qmp_block_job_dismiss.exit, label %11, !prof !21

11:                                               ; preds = %find_block_job_locked.exit
  %12 = load i16, ptr @_TRACE_QMP_BLOCK_JOB_DISMISS_DSTATE, align 2
  %.not2.i.i = icmp eq i16 %12, 0
  br i1 %.not2.i.i, label %trace_qmp_block_job_dismiss.exit, label %13

13:                                               ; preds = %11
  %14 = load i32, ptr @qemu_loglevel, align 4
  %15 = and i32 %14, 32768
  %.not3.i.i = icmp eq i32 %15, 0
  br i1 %.not3.i.i, label %trace_qmp_block_job_dismiss.exit, label %16

16:                                               ; preds = %13
  %17 = load i8, ptr @message_with_timestamp, align 1, !range !6, !noundef !7
  %18 = trunc nuw i8 %17 to i1
  br i1 %18, label %19, label %25

19:                                               ; preds = %16
  call void @llvm.lifetime.start.p0(i64 16, ptr nonnull %3) #14
  call void @llvm.memset.p0.i64(ptr noundef nonnull align 8 dereferenceable(16) %3, i8 0, i64 16, i1 false), !annotation !10
  %20 = call i32 @gettimeofday(ptr noundef nonnull %3, ptr noundef null) #14
  %21 = tail call i32 @qemu_get_thread_id() #14
  %22 = load i64, ptr %3, align 8
  %23 = getelementptr inbounds nuw i8, ptr %3, i64 8
  %24 = load i64, ptr %23, align 8
  tail call void (ptr, ...) @qemu_log(ptr noundef nonnull @.str.259, i32 noundef %21, i64 noundef %22, i64 noundef %24, ptr noundef nonnull %9) #14
  call void @llvm.lifetime.end.p0(i64 16, ptr nonnull %3) #14
  br label %trace_qmp_block_job_dismiss.exit

25:                                               ; preds = %16
  tail call void (ptr, ...) @qemu_log(ptr noundef nonnull @.str.260, ptr noundef nonnull %9) #14
  br label %trace_qmp_block_job_dismiss.exit

trace_qmp_block_job_dismiss.exit:                 ; preds = %find_block_job_locked.exit, %11, %13, %19, %25
  store ptr %9, ptr %4, align 8
  call void @job_dismiss_locked(ptr noundef nonnull %4, ptr noundef %1) #14
  br label %glib_autoptr_cleanup_QemuLockable.exit

glib_autoptr_cleanup_QemuLockable.exit:           ; preds = %find_block_job_locked.exit.thread, %trace_qmp_block_job_dismiss.exit
  call void @qemu_mutex_unlock_impl(ptr noundef nonnull @job_mutex, ptr noundef nonnull @.str.183, i32 noundef 56) #14
  call void @llvm.lifetime.end.p0(i64 8, ptr nonnull %4) #14
  ret void
}